; Function Attrs: mustprogress uwtable
define dso_local void @_ZN4Luau8toStringB5cxx11ERKNS_4TypeERNS_15ToStringOptionsE(ptr dead_on_unwind noalias writable sret(%"class.std::__cxx11::basic_string") align 8 %0, ptr noundef nonnull align 8 dereferenceable(400) %1, ptr noundef nonnull align 8 dereferenceable(184) %2) local_unnamed_addr #6 personality ptr @__gxx_personality_v0 {
  %4 = alloca %"struct.Luau::ToStringResult", align 8
  tail call void @llvm.experimental.noalias.scope.decl(metadata !255)
  call void @llvm.lifetime.start.p0(i64 40, ptr nonnull %4) #29, !noalias !255
  call void @_ZN4Luau16toStringDetailedEPKNS_4TypeERNS_15ToStringOptionsE(ptr dead_on_unwind nonnull writable sret(%"struct.Luau::ToStringResult") align 8 %4, ptr noundef nonnull %1, ptr noundef nonnull align 8 dereferenceable(184) %2), !noalias !255
  %5 = getelementptr inbounds nuw i8, ptr %0, i64 16
  store ptr %5, ptr %0, align 8, !tbaa !99, !alias.scope !255
  %6 = load ptr, ptr %4, align 8, !tbaa !18, !noalias !255
  %7 = getelementptr inbounds nuw i8, ptr %4, i64 16
  %8 = icmp eq ptr %6, %7
  br i1 %8, label %9, label %_ZNKSt7__cxx1112basic_stringIcSt11char_traitsIcESaIcEE11_M_is_localEv.exit.i.i

9:                                                ; preds = %3
  %10 = getelementptr inbounds nuw i8, ptr %4, i64 8
  %11 = load i64, ptr %10, align 8, !tbaa !23, !noalias !255
  %12 = icmp ult i64 %11, 16
  call void @llvm.assume(i1 %12)
  %13 = add nuw nsw i64 %11, 1
  call void @llvm.memcpy.p0.p0.i64(ptr noundef nonnull align 8 dereferenceable(1) %5, ptr noundef nonnull align 8 dereferenceable(1) %7, i64 %13, i1 false)
  br label %_ZN4Luau8toStringB5cxx11EPKNS_4TypeERNS_15ToStringOptionsE.exit

_ZNKSt7__cxx1112basic_stringIcSt11char_traitsIcESaIcEE11_M_is_localEv.exit.i.i: ; preds = %3
  store ptr %6, ptr %0, align 8, !tbaa !18, !alias.scope !255
  %14 = load i64, ptr %7, align 8, !tbaa !24, !noalias !255
  store i64 %14, ptr %5, align 8, !tbaa !24, !alias.scope !255
  %.phi.trans.insert.i = getelementptr inbounds nuw i8, ptr %4, i64 8
  %.pre.i = load i64, ptr %.phi.trans.insert.i, align 8, !tbaa !23, !noalias !255
  br label %_ZN4Luau8toStringB5cxx11EPKNS_4TypeERNS_15ToStringOptionsE.exit

_ZN4Luau8toStringB5cxx11EPKNS_4TypeERNS_15ToStringOptionsE.exit: ; preds = %9, %_ZNKSt7__cxx1112basic_stringIcSt11char_traitsIcESaIcEE11_M_is_localEv.exit.i.i
  %15 = phi i64 [ %11, %9 ], [ %.pre.i, %_ZNKSt7__cxx1112basic_stringIcSt11char_traitsIcESaIcEE11_M_is_localEv.exit.i.i ]
  %16 = getelementptr inbounds nuw i8, ptr %0, i64 8
  store i64 %15, ptr %16, align 8, !tbaa !23, !alias.scope !255
  call void @llvm.lifetime.end.p0(i64 40, ptr nonnull %4) #29, !noalias !255
  ret void
}